; Function Attrs: mustprogress uwtable
define hidden noundef nonnull align 8 dereferenceable(8) ptr @_ZN3smtlsERSoRKNS_11fingerprintE(ptr noundef nonnull returned align 8 dereferenceable(8) %out, ptr nocapture noundef nonnull readonly align 8 dereferenceable(40) %f) local_unnamed_addr #3 {
entry:
  %m_data_hash.i = getelementptr inbounds i8, ptr %f, i64 8
  %0 = load i32, ptr %m_data_hash.i, align 8
  %call1 = tail call noundef nonnull align 8 dereferenceable(8) ptr @_ZNSolsEj(ptr noundef nonnull align 8 dereferenceable(8) %out, i32 noundef %0)
  %call2 = tail call noundef nonnull align 8 dereferenceable(8) ptr @_ZStlsISt11char_traitsIcEERSt13basic_ostreamIcT_ES5_PKc(ptr noundef nonnull align 8 dereferenceable(8) %call1, ptr noundef nonnull @.str)
  %call3 = tail call noundef nonnull align 8 dereferenceable(8) ptr @_ZStlsISt11char_traitsIcEERSt13basic_ostreamIcT_ES5_PKc(ptr noundef nonnull align 8 dereferenceable(8) %call2, ptr noundef nonnull @.str.6)
  %m_num_args.i = getelementptr inbounds i8, ptr %f, i64 24
  %1 = load i32, ptr %m_num_args.i, align 8
  %call5 = tail call noundef nonnull align 8 dereferenceable(8) ptr @_ZNSolsEj(ptr noundef nonnull align 8 dereferenceable(8) %call3, i32 noundef %1)
  %call6 = tail call noundef nonnull align 8 dereferenceable(8) ptr @_ZStlsISt11char_traitsIcEERSt13basic_ostreamIcT_ES5_PKc(ptr noundef nonnull align 8 dereferenceable(8) %call5, ptr noundef nonnull @.str)
  %m_args.i = getelementptr inbounds i8, ptr %f, i64 32
  %2 = load ptr, ptr %m_args.i, align 8
  %3 = load i32, ptr %m_num_args.i, align 8
  %idx.ext.i = zext i32 %3 to i64
  %add.ptr.i = getelementptr inbounds ptr, ptr %2, i64 %idx.ext.i
  %cmp.not9 = icmp eq i32 %3, 0
  br i1 %cmp.not9, label %for.end, label %for.body

for.body:                                         ; preds = %entry, %for.body
  %__begin1.010 = phi ptr [ %incdec.ptr, %for.body ], [ %2, %entry ]
  %4 = load ptr, ptr %__begin1.010, align 8
  %call9 = tail call noundef nonnull align 8 dereferenceable(8) ptr @_ZStlsISt11char_traitsIcEERSt13basic_ostreamIcT_ES5_PKc(ptr noundef nonnull align 8 dereferenceable(8) %out, ptr noundef nonnull @.str)
  %5 = load ptr, ptr %4, align 8
  %6 = load i32, ptr %5, align 4
  %call11 = tail call noundef nonnull align 8 dereferenceable(8) ptr @_ZNSolsEj(ptr noundef nonnull align 8 dereferenceable(8) %call9, i32 noundef %6)
  %incdec.ptr = getelementptr inbounds i8, ptr %__begin1.010, i64 8
  %cmp.not = icmp eq ptr %incdec.ptr, %add.ptr.i
  br i1 %cmp.not, label %for.end, label %for.body

for.end:                                          ; preds = %for.body, %entry
  %call12 = tail call noundef nonnull align 8 dereferenceable(8) ptr @_ZStlsISt11char_traitsIcEERSt13basic_ostreamIcT_ES5_PKc(ptr noundef nonnull align 8 dereferenceable(8) %out, ptr noundef nonnull @.str.7)
  ret ptr %out
}